; Function Attrs: nounwind sspstrong uwtable
define internal range(i64 1, 0) i64 @rand_mt_left(i64 noundef %0) #0 {
  %2 = tail call ptr @rb_check_typeddata(i64 noundef %0, ptr noundef nonnull @random_mt_type) #23
  %3 = getelementptr inbounds nuw i8, ptr %2, i64 2512
  %4 = load i32, ptr %3, align 8, !tbaa !81
  %5 = sext i32 %4 to i64
  %6 = shl nsw i64 %5, 1
  %7 = or disjoint i64 %6, 1
  ret i64 %7
}